(lp0
(lp1
(lp2
I24
aI1
aa(lp3
I23
aI1
aa(lp4
I22
aI1
aa(lp5
I21
aI1
aa(lp6
I18
aI1
aa(lp7
I17
aI1
aaa(lp8
(lp9
I24
aI0
aa(lp10
I23
aI0
aa(lp11
I22
aI0
aa(lp12
I21
aI1
aa(lp13
I18
aI0
aa(lp14
I17
aI0
aaa(lp15
(lp16
I24
aI0
aa(lp17
I23
aI0
aa(lp18
I22
aI0
aa(lp19
I21
aI1
aa(lp20
I18
aI0
aa(lp21
I17
aI0
aaa(lp22
(lp23
I24
aI1
aa(lp24
I23
aI1
aa(lp25
I22
aI1
aa(lp26
I21
aI1
aa(lp27
I18
aI1
aa(lp28
I17
aI1
aaa(lp29
(lp30
I24
aI0
aa(lp31
I23
aI0
aa(lp32
I22
aI0
aa(lp33
I21
aI0
aa(lp34
I18
aI0
aa(lp35
I17
aI0
aaa(lp36
(lp37
I24
aI0
aa(lp38
I23
aI1
aa(lp39
I22
aI1
aa(lp40
I21
aI1
aa(lp41
I18
aI0
aa(lp42
I17
aI0
aaa(lp43
(lp44
I24
aI1
aa(lp45
I23
aI0
aa(lp46
I22
aI1
aa(lp47
I21
aI0
aa(lp48
I18
aI1
aa(lp49
I17
aI0
aaa(lp50
(lp51
I24
aI1
aa(lp52
I23
aI0
aa(lp53
I22
aI1
aa(lp54
I21
aI0
aa(lp55
I18
aI1
aa(lp56
I17
aI0
aaa(lp57
(lp58
I24
aI1
aa(lp59
I23
aI0
aa(lp60
I22
aI0
aa(lp61
I21
aI1
aa(lp62
I18
aI0
aa(lp63
I17
aI0
aaa(lp64
(lp65
I24
aI0
aa(lp66
I23
aI0
aa(lp67
I22
aI0
aa(lp68
I21
aI0
aa(lp69
I18
aI0
aa(lp70
I17
aI0
aaa(lp71
(lp72
I24
aI0
aa(lp73
I23
aI1
aa(lp74
I22
aI1
aa(lp75
I21
aI1
aa(lp76
I18
aI1
aa(lp77
I17
aI1
aaa(lp78
(lp79
I24
aI1
aa(lp80
I23
aI0
aa(lp81
I22
aI0
aa(lp82
I21
aI0
aa(lp83
I18
aI0
aa(lp84
I17
aI0
aaa(lp85
(lp86
I24
aI0
aa(lp87
I23
aI0
aa(lp88
I22
aI0
aa(lp89
I21
aI0
aa(lp90
I18
aI0
aa(lp91
I17
aI0
aaa(lp92
(lp93
I24
aI0
aa(lp94
I23
aI1
aa(lp95
I22
aI1
aa(lp96
I21
aI1
aa(lp97
I18
aI1
aa(lp98
I17
aI1
aaa(lp99
(lp100
I24
aI1
aa(lp101
I23
aI0
aa(lp102
I22
aI0
aa(lp103
I21
aI0
aa(lp104
I18
aI0
aa(lp105
I17
aI0
aaa(lp106
(lp107
I24
aI0
aa(lp108
I23
aI0
aa(lp109
I22
aI0
aa(lp110
I21
aI0
aa(lp111
I18
aI0
aa(lp112
I17
aI0
aaa(lp113
(lp114
I24
aI0
aa(lp115
I23
aI1
aa(lp116
I22
aI1
aa(lp117
I21
aI1
aa(lp118
I18
aI0
aa(lp119
I17
aI0
aaa(lp120
(lp121
I24
aI1
aa(lp122
I23
aI0
aa(lp123
I22
aI0
aa(lp124
I21
aI0
aa(lp125
I18
aI1
aa(lp126
I17
aI0
aaa(lp127
(lp128
I24
aI1
aa(lp129
I23
aI0
aa(lp130
I22
aI0
aa(lp131
I21
aI0
aa(lp132
I18
aI1
aa(lp133
I17
aI0
aaa(lp134
(lp135
I24
aI0
aa(lp136
I23
aI1
aa(lp137
I22
aI1
aa(lp138
I21
aI1
aa(lp139
I18
aI0
aa(lp140
I17
aI0
aaa(lp141
(lp142
I24
aI0
aa(lp143
I23
aI0
aa(lp144
I22
aI0
aa(lp145
I21
aI0
aa(lp146
I18
aI0
aa(lp147
I17
aI0
aaa(lp148
(lp149
I24
aI0
aa(lp150
I23
aI0
aa(lp151
I22
aI0
aa(lp152
I21
aI0
aa(lp153
I18
aI0
aa(lp154
I17
aI0
aaa(lp155
(lp156
I24
aI0
aa(lp157
I23
aI0
aa(lp158
I22
aI0
aa(lp159
I21
aI0
aa(lp160
I18
aI0
aa(lp161
I17
aI0
aaa(lp162
(lp163
I24
aI0
aa(lp164
I23
aI0
aa(lp165
I22
aI0
aa(lp166
I21
aI0
aa(lp167
I18
aI0
aa(lp168
I17
aI0
aaa(lp169
(lp170
I24
aI0
aa(lp171
I23
aI0
aa(lp172
I22
aI0
aa(lp173
I21
aI0
aa(lp174
I18
aI0
aa(lp175
I17
aI0
aaa(lp176
(lp177
I24
aI0
aa(lp178
I23
aI0
aa(lp179
I22
aI0
aa(lp180
I21
aI0
aa(lp181
I18
aI0
aa(lp182
I17
aI0
aaa(lp183
(lp184
I24
aI0
aa(lp185
I23
aI0
aa(lp186
I22
aI0
aa(lp187
I21
aI0
aa(lp188
I18
aI0
aa(lp189
I17
aI0
aaa(lp190
(lp191
I24
aI0
aa(lp192
I23
aI0
aa(lp193
I22
aI0
aa(lp194
I21
aI0
aa(lp195
I18
aI0
aa(lp196
I17
aI0
aaa(lp197
(lp198
I24
aI0
aa(lp199
I23
aI0
aa(lp200
I22
aI0
aa(lp201
I21
aI0
aa(lp202
I18
aI0
aa(lp203
I17
aI0
aaa(lp204
(lp205
I24
aI0
aa(lp206
I23
aI0
aa(lp207
I22
aI0
aa(lp208
I21
aI0
aa(lp209
I18
aI0
aa(lp210
I17
aI0
aaa(lp211
(lp212
I24
aI0
aa(lp213
I23
aI0
aa(lp214
I22
aI0
aa(lp215
I21
aI0
aa(lp216
I18
aI0
aa(lp217
I17
aI0
aaa.