(lp0
(lp1
(lp2
I24
aI1
aa(lp3
I23
aI1
aa(lp4
I22
aI1
aa(lp5
I21
aI1
aa(lp6
I18
aI1
aa(lp7
I17
aI1
aaa(lp8
(lp9
I24
aI0
aa(lp10
I23
aI0
aa(lp11
I22
aI0
aa(lp12
I21
aI1
aa(lp13
I18
aI0
aa(lp14
I17
aI0
aaa(lp15
(lp16
I24
aI0
aa(lp17
I23
aI0
aa(lp18
I22
aI0
aa(lp19
I21
aI1
aa(lp20
I18
aI0
aa(lp21
I17
aI0
aaa(lp22
(lp23
I24
aI1
aa(lp24
I23
aI1
aa(lp25
I22
aI1
aa(lp26
I21
aI1
aa(lp27
I18
aI1
aa(lp28
I17
aI1
aaa(lp29
(lp30
I24
aI0
aa(lp31
I23
aI0
aa(lp32
I22
aI0
aa(lp33
I21
aI0
aa(lp34
I18
aI0
aa(lp35
I17
aI0
aaa(lp36
(lp37
I24
aI0
aa(lp38
I23
aI1
aa(lp39
I22
aI1
aa(lp40
I21
aI1
aa(lp41
I18
aI0
aa(lp42
I17
aI0
aaa(lp43
(lp44
I24
aI1
aa(lp45
I23
aI0
aa(lp46
I22
aI1
aa(lp47
I21
aI0
aa(lp48
I18
aI1
aa(lp49
I17
aI0
aaa(lp50
(lp51
I24
aI1
aa(lp52
I23
aI0
aa(lp53
I22
aI1
aa(lp54
I21
aI0
aa(lp55
I18
aI1
aa(lp56
I17
aI0
aaa(lp57
(lp58
I24
aI1
aa(lp59
I23
aI0
aa(lp60
I22
aI0
aa(lp61
I21
aI1
aa(lp62
I18
aI0
aa(lp63
I17
aI0
aaa(lp64
(lp65
I24
aI0
aa(lp66
I23
aI0
aa(lp67
I22
aI0
aa(lp68
I21
aI0
aa(lp69
I18
aI0
aa(lp70
I17
aI0
aaa(lp71
(lp72
I24
aI0
aa(lp73
I23
aI1
aa(lp74
I22
aI1
aa(lp75
I21
aI1
aa(lp76
I18
aI1
aa(lp77
I17
aI1
aaa(lp78
(lp79
I24
aI1
aa(lp80
I23
aI0
aa(lp81
I22
aI0
aa(lp82
I21
aI0
aa(lp83
I18
aI0
aa(lp84
I17
aI0
aaa(lp85
(lp86
I24
aI0
aa(lp87
I23
aI0
aa(lp88
I22
aI0
aa(lp89
I21
aI0
aa(lp90
I18
aI0
aa(lp91
I17
aI0
aaa(lp92
(lp93
I24
aI0
aa(lp94
I23
aI1
aa(lp95
I22
aI1
aa(lp96
I21
aI1
aa(lp97
I18
aI1
aa(lp98
I17
aI1
aaa(lp99
(lp100
I24
aI1
aa(lp101
I23
aI0
aa(lp102
I22
aI0
aa(lp103
I21
aI0
aa(lp104
I18
aI0
aa(lp105
I17
aI0
aaa(lp106
(lp107
I24
aI0
aa(lp108
I23
aI0
aa(lp109
I22
aI0
aa(lp110
I21
aI0
aa(lp111
I18
aI0
aa(lp112
I17
aI0
aaa(lp113
(lp114
I24
aI0
aa(lp115
I23
aI1
aa(lp116
I22
aI1
aa(lp117
I21
aI1
aa(lp118
I18
aI0
aa(lp119
I17
aI0
aaa(lp120
(lp121
I24
aI1
aa(lp122
I23
aI0
aa(lp123
I22
aI0
aa(lp124
I21
aI0
aa(lp125
I18
aI1
aa(lp126
I17
aI0
aaa(lp127
(lp128
I24
aI1
aa(lp129
I23
aI0
aa(lp130
I22
aI0
aa(lp131
I21
aI0
aa(lp132
I18
aI1
aa(lp133
I17
aI0
aaa(lp134
(lp135
I24
aI0
aa(lp136
I23
aI1
aa(lp137
I22
aI1
aa(lp138
I21
aI1
aa(lp139
I18
aI0
aa(lp140
I17
aI0
aaa(lp141
(lp142
I24
aI0
aa(lp143
I23
aI0
aa(lp144
I22
aI0
aa(lp145
I21
aI0
aa(lp146
I18
aI0
aa(lp147
I17
aI0
aaa(lp148
(lp149
I24
aI0
aa(lp150
I23
aI0
aa(lp151
I22
aI0
aa(lp152
I21
aI0
aa(lp153
I18
aI0
aa(lp154
I17
aI0
aaa(lp155
(lp156
I24
aI0
aa(lp157
I23
aI0
aa(lp158
I22
aI0
aa(lp159
I21
aI0
aa(lp160
I18
aI0
aa(lp161
I17
aI0
aaa(lp162
(lp163
I24
aI0
aa(lp164
I23
aI0
aa(lp165
I22
aI0
aa(lp166
I21
aI0
aa(lp167
I18
aI0
aa(lp168
I17
aI0
aaa(lp169
(lp170
I24
aI0
aa(lp171
I23
aI0
aa(lp172
I22
aI0
aa(lp173
I21
aI0
aa(lp174
I18
aI0
aa(lp175
I17
aI0
aaa(lp176
(lp177
I24
aI1
aa(lp178
I23
aI1
aa(lp179
I22
aI1
aa(lp180
I21
aI1
aa(lp181
I18
aI1
aa(lp182
I17
aI1
aaa(lp183
(lp184
I24
aI0
aa(lp185
I23
aI0
aa(lp186
I22
aI0
aa(lp187
I21
aI1
aa(lp188
I18
aI0
aa(lp189
I17
aI0
aaa(lp190
(lp191
I24
aI0
aa(lp192
I23
aI0
aa(lp193
I22
aI0
aa(lp194
I21
aI1
aa(lp195
I18
aI0
aa(lp196
I17
aI0
aaa(lp197
(lp198
I24
aI0
aa(lp199
I23
aI0
aa(lp200
I22
aI1
aa(lp201
I21
aI0
aa(lp202
I18
aI1
aa(lp203
I17
aI1
aaa(lp204
(lp205
I24
aI1
aa(lp206
I23
aI1
aa(lp207
I22
aI0
aa(lp208
I21
aI0
aa(lp209
I18
aI0
aa(lp210
I17
aI0
aaa(lp211
(lp212
I24
aI0
aa(lp213
I23
aI0
aa(lp214
I22
aI0
aa(lp215
I21
aI0
aa(lp216
I18
aI0
aa(lp217
I17
aI0
aaa(lp218
(lp219
I24
aI1
aa(lp220
I23
aI1
aa(lp221
I22
aI1
aa(lp222
I21
aI1
aa(lp223
I18
aI0
aa(lp224
I17
aI1
aaa(lp225
(lp226
I24
aI0
aa(lp227
I23
aI0
aa(lp228
I22
aI0
aa(lp229
I21
aI0
aa(lp230
I18
aI0
aa(lp231
I17
aI0
aaa(lp232
(lp233
I24
aI0
aa(lp234
I23
aI1
aa(lp235
I22
aI1
aa(lp236
I21
aI1
aa(lp237
I18
aI0
aa(lp238
I17
aI0
aaa(lp239
(lp240
I24
aI1
aa(lp241
I23
aI0
aa(lp242
I22
aI1
aa(lp243
I21
aI0
aa(lp244
I18
aI1
aa(lp245
I17
aI0
aaa(lp246
(lp247
I24
aI1
aa(lp248
I23
aI0
aa(lp249
I22
aI1
aa(lp250
I21
aI0
aa(lp251
I18
aI1
aa(lp252
I17
aI0
aaa(lp253
(lp254
I24
aI1
aa(lp255
I23
aI0
aa(lp256
I22
aI0
aa(lp257
I21
aI1
aa(lp258
I18
aI0
aa(lp259
I17
aI0
aaa(lp260
(lp261
I24
aI0
aa(lp262
I23
aI0
aa(lp263
I22
aI0
aa(lp264
I21
aI0
aa(lp265
I18
aI0
aa(lp266
I17
aI0
aaa(lp267
(lp268
I24
aI1
aa(lp269
I23
aI1
aa(lp270
I22
aI1
aa(lp271
I21
aI1
aa(lp272
I18
aI0
aa(lp273
I17
aI0
aaa(lp274
(lp275
I24
aI0
aa(lp276
I23
aI0
aa(lp277
I22
aI0
aa(lp278
I21
aI0
aa(lp279
I18
aI1
aa(lp280
I17
aI0
aaa(lp281
(lp282
I24
aI0
aa(lp283
I23
aI0
aa(lp284
I22
aI0
aa(lp285
I21
aI0
aa(lp286
I18
aI1
aa(lp287
I17
aI0
aaa(lp288
(lp289
I24
aI0
aa(lp290
I23
aI0
aa(lp291
I22
aI0
aa(lp292
I21
aI0
aa(lp293
I18
aI0
aa(lp294
I17
aI0
aaa(lp295
(lp296
I24
aI0
aa(lp297
I23
aI1
aa(lp298
I22
aI0
aa(lp299
I21
aI0
aa(lp300
I18
aI0
aa(lp301
I17
aI0
aaa(lp302
(lp303
I24
aI1
aa(lp304
I23
aI0
aa(lp305
I22
aI1
aa(lp306
I21
aI0
aa(lp307
I18
aI1
aa(lp308
I17
aI0
aaa(lp309
(lp310
I24
aI1
aa(lp311
I23
aI0
aa(lp312
I22
aI1
aa(lp313
I21
aI0
aa(lp314
I18
aI1
aa(lp315
I17
aI0
aaa(lp316
(lp317
I24
aI1
aa(lp318
I23
aI1
aa(lp319
I22
aI1
aa(lp320
I21
aI1
aa(lp321
I18
aI0
aa(lp322
I17
aI0
aaa(lp323
(lp324
I24
aI0
aa(lp325
I23
aI0
aa(lp326
I22
aI0
aa(lp327
I21
aI0
aa(lp328
I18
aI0
aa(lp329
I17
aI0
aaa(lp330
(lp331
I24
aI1
aa(lp332
I23
aI1
aa(lp333
I22
aI1
aa(lp334
I21
aI1
aa(lp335
I18
aI1
aa(lp336
I17
aI0
aaa(lp337
(lp338
I24
aI0
aa(lp339
I23
aI0
aa(lp340
I22
aI0
aa(lp341
I21
aI0
aa(lp342
I18
aI1
aa(lp343
I17
aI0
aaa(lp344
(lp345
I24
aI0
aa(lp346
I23
aI0
aa(lp347
I22
aI0
aa(lp348
I21
aI1
aa(lp349
I18
aI0
aa(lp350
I17
aI0
aaa(lp351
(lp352
I24
aI1
aa(lp353
I23
aI1
aa(lp354
I22
aI1
aa(lp355
I21
aI0
aa(lp356
I18
aI0
aa(lp357
I17
aI0
aaa(lp358
(lp359
I24
aI0
aa(lp360
I23
aI0
aa(lp361
I22
aI0
aa(lp362
I21
aI0
aa(lp363
I18
aI0
aa(lp364
I17
aI0
aaa(lp365
(lp366
I24
aI0
aa(lp367
I23
aI0
aa(lp368
I22
aI0
aa(lp369
I21
aI0
aa(lp370
I18
aI0
aa(lp371
I17
aI0
aaa(lp372
(lp373
I24
aI1
aa(lp374
I23
aI0
aa(lp375
I22
aI1
aa(lp376
I21
aI1
aa(lp377
I18
aI1
aa(lp378
I17
aI1
aaa(lp379
(lp380
I24
aI0
aa(lp381
I23
aI0
aa(lp382
I22
aI0
aa(lp383
I21
aI0
aa(lp384
I18
aI0
aa(lp385
I17
aI0
aaa(lp386
(lp387
I24
aI1
aa(lp388
I23
aI0
aa(lp389
I22
aI1
aa(lp390
I21
aI1
aa(lp391
I18
aI1
aa(lp392
I17
aI1
aaa(lp393
(lp394
I24
aI0
aa(lp395
I23
aI0
aa(lp396
I22
aI0
aa(lp397
I21
aI0
aa(lp398
I18
aI0
aa(lp399
I17
aI0
aaa(lp400
(lp401
I24
aI0
aa(lp402
I23
aI0
aa(lp403
I22
aI0
aa(lp404
I21
aI0
aa(lp405
I18
aI0
aa(lp406
I17
aI0
aaa(lp407
(lp408
I24
aI0
aa(lp409
I23
aI0
aa(lp410
I22
aI0
aa(lp411
I21
aI0
aa(lp412
I18
aI0
aa(lp413
I17
aI0
aaa(lp414
(lp415
I24
aI0
aa(lp416
I23
aI0
aa(lp417
I22
aI1
aa(lp418
I21
aI0
aa(lp419
I18
aI0
aa(lp420
I17
aI0
aaa(lp421
(lp422
I24
aI0
aa(lp423
I23
aI1
aa(lp424
I22
aI0
aa(lp425
I21
aI0
aa(lp426
I18
aI0
aa(lp427
I17
aI0
aaa(lp428
(lp429
I24
aI1
aa(lp430
I23
aI0
aa(lp431
I22
aI0
aa(lp432
I21
aI0
aa(lp433
I18
aI1
aa(lp434
I17
aI1
aaa(lp435
(lp436
I24
aI1
aa(lp437
I23
aI0
aa(lp438
I22
aI0
aa(lp439
I21
aI0
aa(lp440
I18
aI0
aa(lp441
I17
aI0
aaa(lp442
(lp443
I24
aI1
aa(lp444
I23
aI0
aa(lp445
I22
aI0
aa(lp446
I21
aI0
aa(lp447
I18
aI0
aa(lp448
I17
aI0
aaa(lp449
(lp450
I24
aI1
aa(lp451
I23
aI0
aa(lp452
I22
aI0
aa(lp453
I21
aI0
aa(lp454
I18
aI1
aa(lp455
I17
aI1
aaa(lp456
(lp457
I24
aI0
aa(lp458
I23
aI1
aa(lp459
I22
aI0
aa(lp460
I21
aI0
aa(lp461
I18
aI0
aa(lp462
I17
aI0
aaa(lp463
(lp464
I24
aI0
aa(lp465
I23
aI0
aa(lp466
I22
aI1
aa(lp467
I21
aI0
aa(lp468
I18
aI0
aa(lp469
I17
aI0
aaa(lp470
(lp471
I24
aI0
aa(lp472
I23
aI0
aa(lp473
I22
aI0
aa(lp474
I21
aI0
aa(lp475
I18
aI0
aa(lp476
I17
aI0
aaa(lp477
(lp478
I24
aI0
aa(lp479
I23
aI0
aa(lp480
I22
aI0
aa(lp481
I21
aI0
aa(lp482
I18
aI0
aa(lp483
I17
aI0
aaa(lp484
(lp485
I24
aI0
aa(lp486
I23
aI0
aa(lp487
I22
aI0
aa(lp488
I21
aI0
aa(lp489
I18
aI0
aa(lp490
I17
aI0
aaa(lp491
(lp492
I24
aI0
aa(lp493
I23
aI0
aa(lp494
I22
aI0
aa(lp495
I21
aI0
aa(lp496
I18
aI0
aa(lp497
I17
aI0
aaa(lp498
(lp499
I24
aI0
aa(lp500
I23
aI0
aa(lp501
I22
aI0
aa(lp502
I21
aI0
aa(lp503
I18
aI0
aa(lp504
I17
aI0
aaa(lp505
(lp506
I24
aI0
aa(lp507
I23
aI0
aa(lp508
I22
aI0
aa(lp509
I21
aI0
aa(lp510
I18
aI0
aa(lp511
I17
aI0
aaa(lp512
(lp513
I24
aI0
aa(lp514
I23
aI0
aa(lp515
I22
aI0
aa(lp516
I21
aI0
aa(lp517
I18
aI0
aa(lp518
I17
aI0
aaa(lp519
(lp520
I24
aI0
aa(lp521
I23
aI0
aa(lp522
I22
aI0
aa(lp523
I21
aI0
aa(lp524
I18
aI0
aa(lp525
I17
aI0
aaa(lp526
(lp527
I24
aI0
aa(lp528
I23
aI0
aa(lp529
I22
aI0
aa(lp530
I21
aI0
aa(lp531
I18
aI0
aa(lp532
I17
aI0
aaa(lp533
(lp534
I24
aI0
aa(lp535
I23
aI0
aa(lp536
I22
aI0
aa(lp537
I21
aI0
aa(lp538
I18
aI0
aa(lp539
I17
aI0
aaa(lp540
(lp541
I24
aI0
aa(lp542
I23
aI0
aa(lp543
I22
aI0
aa(lp544
I21
aI0
aa(lp545
I18
aI0
aa(lp546
I17
aI0
aaa(lp547
(lp548
I24
aI0
aa(lp549
I23
aI0
aa(lp550
I22
aI0
aa(lp551
I21
aI0
aa(lp552
I18
aI0
aa(lp553
I17
aI0
aaa(lp554
(lp555
I24
aI0
aa(lp556
I23
aI0
aa(lp557
I22
aI0
aa(lp558
I21
aI0
aa(lp559
I18
aI0
aa(lp560
I17
aI0
aaa.