(lp0
(lp1
(lp2
I24
aI1
aa(lp3
I23
aI0
aa(lp4
I22
aI0
aa(lp5
I21
aI0
aa(lp6
I18
aI0
aa(lp7
I17
aI0
aaa(lp8
(lp9
I24
aF0.5
aa(lp10
I23
aI1
aa(lp11
I22
aI0
aa(lp12
I21
aI0
aa(lp13
I18
aI0
aa(lp14
I17
aI0
aaa(lp15
(lp16
I24
aF0.2
aa(lp17
I23
aF0.5
aa(lp18
I22
aI1
aa(lp19
I21
aI0
aa(lp20
I18
aI0
aa(lp21
I17
aI0
aaa(lp22
(lp23
I24
aI0
aa(lp24
I23
aF0.2
aa(lp25
I22
aF0.5
aa(lp26
I21
aI1
aa(lp27
I18
aI0
aa(lp28
I17
aI0
aaa(lp29
(lp30
I24
aI0
aa(lp31
I23
aI0
aa(lp32
I22
aF0.2
aa(lp33
I21
aF0.5
aa(lp34
I18
aI1
aa(lp35
I17
aI0
aaa(lp36
(lp37
I24
aI0
aa(lp38
I23
aI0
aa(lp39
I22
aI0
aa(lp40
I21
aF0.2
aa(lp41
I18
aF0.5
aa(lp42
I17
aI1
aaa(lp43
(lp44
I24
aI0
aa(lp45
I23
aI0
aa(lp46
I22
aI0
aa(lp47
I21
aI0
aa(lp48
I18
aF0.2
aa(lp49
I17
aF0.5
aaa(lp50
(lp51
I24
aI0
aa(lp52
I23
aI0
aa(lp53
I22
aI0
aa(lp54
I21
aI0
aa(lp55
I18
aI0
aa(lp56
I17
aF0.2
aaa(lp57
(lp58
I24
aI0
aa(lp59
I23
aI0
aa(lp60
I22
aI0
aa(lp61
I21
aI0
aa(lp62
I18
aI0
aa(lp63
I17
aI0
aaa(lp64
(lp65
I24
aI0
aa(lp66
I23
aI0
aa(lp67
I22
aI0
aa(lp68
I21
aI0
aa(lp69
I18
aI0
aa(lp70
I17
aI1
aaa(lp71
(lp72
I24
aI0
aa(lp73
I23
aI0
aa(lp74
I22
aI0
aa(lp75
I21
aI0
aa(lp76
I18
aI1
aa(lp77
I17
aF0.5
aaa(lp78
(lp79
I24
aI0
aa(lp80
I23
aI0
aa(lp81
I22
aI0
aa(lp82
I21
aI1
aa(lp83
I18
aF0.5
aa(lp84
I17
aF0.2
aaa(lp85
(lp86
I24
aI0
aa(lp87
I23
aI0
aa(lp88
I22
aI1
aa(lp89
I21
aF0.5
aa(lp90
I18
aF0.2
aa(lp91
I17
aI0
aaa(lp92
(lp93
I24
aI0
aa(lp94
I23
aI1
aa(lp95
I22
aF0.5
aa(lp96
I21
aF0.2
aa(lp97
I18
aI0
aa(lp98
I17
aI0
aaa(lp99
(lp100
I24
aI1
aa(lp101
I23
aF0.5
aa(lp102
I22
aF0.2
aa(lp103
I21
aI0
aa(lp104
I18
aI0
aa(lp105
I17
aI0
aaa(lp106
(lp107
I24
aF0.5
aa(lp108
I23
aF0.2
aa(lp109
I22
aI0
aa(lp110
I21
aI0
aa(lp111
I18
aI0
aa(lp112
I17
aI0
aaa(lp113
(lp114
I24
aF0.2
aa(lp115
I23
aI0
aa(lp116
I22
aI0
aa(lp117
I21
aI0
aa(lp118
I18
aI0
aa(lp119
I17
aI0
aaa(lp120
(lp121
I24
aI0
aa(lp122
I23
aI0
aa(lp123
I22
aI0
aa(lp124
I21
aI0
aa(lp125
I18
aI0
aa(lp126
I17
aI0
aaa.