(lp0
(lp1
(lp2
I24
aF0.5
aa(lp3
I23
aF0.6
aa(lp4
I22
aF0.7
aa(lp5
I21
aF0.8
aa(lp6
I18
aF0.9
aa(lp7
I17
aI1
aaa(lp8
(lp9
I24
aF0.4
aa(lp10
I23
aF0.5
aa(lp11
I22
aF0.6
aa(lp12
I21
aF0.7
aa(lp13
I18
aF0.8
aa(lp14
I17
aF0.9
aaa(lp15
(lp16
I24
aF0.3
aa(lp17
I23
aF0.4
aa(lp18
I22
aF0.5
aa(lp19
I21
aF0.6
aa(lp20
I18
aF0.7
aa(lp21
I17
aF0.8
aaa(lp22
(lp23
I24
aF0.2
aa(lp24
I23
aF0.3
aa(lp25
I22
aF0.4
aa(lp26
I21
aF0.5
aa(lp27
I18
aF0.6
aa(lp28
I17
aF0.7
aaa(lp29
(lp30
I24
aF0.1
aa(lp31
I23
aF0.2
aa(lp32
I22
aF0.3
aa(lp33
I21
aF0.4
aa(lp34
I18
aF0.5
aa(lp35
I17
aF0.6
aaa(lp36
(lp37
I24
aI0
aa(lp38
I23
aF0.1
aa(lp39
I22
aF0.2
aa(lp40
I21
aF0.3
aa(lp41
I18
aF0.4
aa(lp42
I17
aF0.5
aaa(lp43
(lp44
I23
aI0
aa(lp45
I24
aF0.1
aa(lp46
I22
aF0.1
aa(lp47
I21
aF0.2
aa(lp48
I18
aF0.3
aa(lp49
I17
aF0.4
aaa(lp50
(lp51
I22
aI0
aa(lp52
I23
aF0.1
aa(lp53
I21
aF0.1
aa(lp54
I24
aF0.2
aa(lp55
I18
aF0.2
aa(lp56
I17
aF0.3
aaa(lp57
(lp58
I21
aI0
aa(lp59
I22
aF0.1
aa(lp60
I18
aF0.1
aa(lp61
I23
aF0.2
aa(lp62
I17
aF0.2
aa(lp63
I24
aF0.3
aaa(lp64
(lp65
I18
aI0
aa(lp66
I21
aF0.1
aa(lp67
I17
aF0.1
aa(lp68
I22
aF0.2
aa(lp69
I23
aF0.3
aa(lp70
I24
aF0.4
aaa(lp71
(lp72
I17
aI0
aa(lp73
I18
aF0.1
aa(lp74
I21
aF0.2
aa(lp75
I22
aF0.3
aa(lp76
I23
aF0.4
aa(lp77
I24
aF0.5
aaa(lp78
(lp79
I17
aF0.1
aa(lp80
I18
aF0.2
aa(lp81
I21
aF0.3
aa(lp82
I22
aF0.4
aa(lp83
I23
aF0.5
aa(lp84
I24
aF0.6
aaa(lp85
(lp86
I17
aF0.2
aa(lp87
I18
aF0.3
aa(lp88
I21
aF0.4
aa(lp89
I22
aF0.5
aa(lp90
I23
aF0.6
aa(lp91
I24
aF0.7
aaa(lp92
(lp93
I17
aF0.3
aa(lp94
I18
aF0.4
aa(lp95
I21
aF0.5
aa(lp96
I22
aF0.6
aa(lp97
I23
aF0.7
aa(lp98
I24
aF0.8
aaa(lp99
(lp100
I17
aF0.4
aa(lp101
I18
aF0.5
aa(lp102
I21
aF0.6
aa(lp103
I22
aF0.7
aa(lp104
I23
aF0.8
aa(lp105
I24
aF0.9
aaa(lp106
(lp107
I17
aF0.5
aa(lp108
I18
aF0.6
aa(lp109
I21
aF0.7
aa(lp110
I22
aF0.8
aa(lp111
I23
aF0.9
aa(lp112
I24
aI1
aaa(lp113
(lp114
I17
aF0.6
aa(lp115
I18
aF0.7
aa(lp116
I21
aF0.8
aa(lp117
I24
aF0.9
aa(lp118
I22
aF0.9
aa(lp119
I23
aI1
aaa(lp120
(lp121
I17
aF0.7
aa(lp122
I24
aF0.8
aa(lp123
I18
aF0.8
aa(lp124
I23
aF0.9
aa(lp125
I21
aF0.9
aa(lp126
I22
aI1
aaa(lp127
(lp128
I24
aF0.7
aa(lp129
I23
aF0.8
aa(lp130
I17
aF0.8
aa(lp131
I22
aF0.9
aa(lp132
I18
aF0.9
aa(lp133
I21
aI1
aaa(lp134
(lp135
I24
aF0.6
aa(lp136
I23
aF0.7
aa(lp137
I22
aF0.8
aa(lp138
I21
aF0.9
aa(lp139
I17
aF0.9
aa(lp140
I18
aI1
aaa.